target datalayout = "e-m:e-p270:32:32-p271:32:32-p272:64:64-i64:64-i128:128-f80:128-n8:16:32:64-S128"
target triple = "x86_64-unknown-linux-gnu"

%struct.QEnumLookup = type { ptr, ptr, i32 }
%struct.AudiodevPerDirectionOptions = type { i8, i8, i8, i8, i8, i32, i8, i32, i8, i32, i8, i32, i8, i32 }

@.str = private unnamed_addr constant [14 x i8] c"mixing-engine\00", align 1
@.str.1 = private unnamed_addr constant [15 x i8] c"fixed-settings\00", align 1
@.str.2 = private unnamed_addr constant [10 x i8] c"frequency\00", align 1
@.str.3 = private unnamed_addr constant [9 x i8] c"channels\00", align 1
@.str.4 = private unnamed_addr constant [7 x i8] c"voices\00", align 1
@.str.5 = private unnamed_addr constant [7 x i8] c"format\00", align 1
@.str.6 = private unnamed_addr constant [14 x i8] c"buffer-length\00", align 1
@AudioFormat_lookup = external constant %struct.QEnumLookup, align 8

; Function Attrs: nounwind sspstrong uwtable
define dso_local zeroext i1 @visit_type_AudioFormat(ptr noundef %v, ptr noundef %name, ptr noundef %obj, ptr noundef %errp) #0 {
entry:
  %v.addr = alloca ptr, align 8
  %name.addr = alloca ptr, align 8
  %obj.addr = alloca ptr, align 8
  %errp.addr = alloca ptr, align 8
  %value = alloca i32, align 4
  %ok = alloca i8, align 1
  store ptr %v, ptr %v.addr, align 8
  store ptr %name, ptr %name.addr, align 8
  store ptr %obj, ptr %obj.addr, align 8
  store ptr %errp, ptr %errp.addr, align 8
  %0 = load ptr, ptr %obj.addr, align 8
  %1 = load i32, ptr %0, align 4
  store i32 %1, ptr %value, align 4
  %2 = load ptr, ptr %v.addr, align 8
  %3 = load ptr, ptr %name.addr, align 8
  %4 = load ptr, ptr %errp.addr, align 8
  %call = call zeroext i1 @visit_type_enum(ptr noundef %2, ptr noundef %3, ptr noundef %value, ptr noundef @AudioFormat_lookup, ptr noundef %4)
  %frombool = zext i1 %call to i8
  store i8 %frombool, ptr %ok, align 1
  %5 = load i32, ptr %value, align 4
  %6 = load ptr, ptr %obj.addr, align 8
  store i32 %5, ptr %6, align 4
  %7 = load i8, ptr %ok, align 1
  %tobool = trunc i8 %7 to i1
  ret i1 %tobool
}

; Function Attrs: nounwind sspstrong uwtable
define dso_local zeroext i1 @visit_type_AudiodevPerDirectionOptions_members(ptr noundef %v, ptr noundef %obj, ptr noundef %errp) #0 {
entry:
  %retval = alloca i1, align 1
  %v.addr = alloca ptr, align 8
  %obj.addr = alloca ptr, align 8
  %errp.addr = alloca ptr, align 8
  store ptr %v, ptr %v.addr, align 8
  store ptr %obj, ptr %obj.addr, align 8
  store ptr %errp, ptr %errp.addr, align 8
  %0 = load ptr, ptr %v.addr, align 8
  %1 = load ptr, ptr %obj.addr, align 8
  %has_mixing_engine = getelementptr inbounds %struct.AudiodevPerDirectionOptions, ptr %1, i32 0, i32 0
  %call = call zeroext i1 @visit_optional(ptr noundef %0, ptr noundef @.str, ptr noundef %has_mixing_engine)
  br i1 %call, label %if.then, label %if.end3

if.then:                                          ; preds = %entry
  %2 = load ptr, ptr %v.addr, align 8
  %3 = load ptr, ptr %obj.addr, align 8
  %mixing_engine = getelementptr inbounds %struct.AudiodevPerDirectionOptions, ptr %3, i32 0, i32 1
  %4 = load ptr, ptr %errp.addr, align 8
  %call1 = call zeroext i1 @visit_type_bool(ptr noundef %2, ptr noundef @.str, ptr noundef %mixing_engine, ptr noundef %4)
  br i1 %call1, label %if.end, label %if.then2

if.then2:                                         ; preds = %if.then
  store i1 false, ptr %retval, align 1
  br label %return

if.end:                                           ; preds = %if.then
  br label %if.end3

if.end3:                                          ; preds = %if.end, %entry
  %5 = load ptr, ptr %v.addr, align 8
  %6 = load ptr, ptr %obj.addr, align 8
  %has_fixed_settings = getelementptr inbounds %struct.AudiodevPerDirectionOptions, ptr %6, i32 0, i32 2
  %call4 = call zeroext i1 @visit_optional(ptr noundef %5, ptr noundef @.str.1, ptr noundef %has_fixed_settings)
  br i1 %call4, label %if.then5, label %if.end9

if.then5:                                         ; preds = %if.end3
  %7 = load ptr, ptr %v.addr, align 8
  %8 = load ptr, ptr %obj.addr, align 8
  %fixed_settings = getelementptr inbounds %struct.AudiodevPerDirectionOptions, ptr %8, i32 0, i32 3
  %9 = load ptr, ptr %errp.addr, align 8
  %call6 = call zeroext i1 @visit_type_bool(ptr noundef %7, ptr noundef @.str.1, ptr noundef %fixed_settings, ptr noundef %9)
  br i1 %call6, label %if.end8, label %if.then7

if.then7:                                         ; preds = %if.then5
  store i1 false, ptr %retval, align 1
  br label %return

if.end8:                                          ; preds = %if.then5
  br label %if.end9

if.end9:                                          ; preds = %if.end8, %if.end3
  %10 = load ptr, ptr %v.addr, align 8
  %11 = load ptr, ptr %obj.addr, align 8
  %has_frequency = getelementptr inbounds %struct.AudiodevPerDirectionOptions, ptr %11, i32 0, i32 4
  %call10 = call zeroext i1 @visit_optional(ptr noundef %10, ptr noundef @.str.2, ptr noundef %has_frequency)
  br i1 %call10, label %if.then11, label %if.end15

if.then11:                                        ; preds = %if.end9
  %12 = load ptr, ptr %v.addr, align 8
  %13 = load ptr, ptr %obj.addr, align 8
  %frequency = getelementptr inbounds %struct.AudiodevPerDirectionOptions, ptr %13, i32 0, i32 5
  %14 = load ptr, ptr %errp.addr, align 8
  %call12 = call zeroext i1 @visit_type_uint32(ptr noundef %12, ptr noundef @.str.2, ptr noundef %frequency, ptr noundef %14)
  br i1 %call12, label %if.end14, label %if.then13

if.then13:                                        ; preds = %if.then11
  store i1 false, ptr %retval, align 1
  br label %return

if.end14:                                         ; preds = %if.then11
  br label %if.end15

if.end15:                                         ; preds = %if.end14, %if.end9
  %15 = load ptr, ptr %v.addr, align 8
  %16 = load ptr, ptr %obj.addr, align 8
  %has_channels = getelementptr inbounds %struct.AudiodevPerDirectionOptions, ptr %16, i32 0, i32 6
  %call16 = call zeroext i1 @visit_optional(ptr noundef %15, ptr noundef @.str.3, ptr noundef %has_channels)
  br i1 %call16, label %if.then17, label %if.end21

if.then17:                                        ; preds = %if.end15
  %17 = load ptr, ptr %v.addr, align 8
  %18 = load ptr, ptr %obj.addr, align 8
  %channels = getelementptr inbounds %struct.AudiodevPerDirectionOptions, ptr %18, i32 0, i32 7
  %19 = load ptr, ptr %errp.addr, align 8
  %call18 = call zeroext i1 @visit_type_uint32(ptr noundef %17, ptr noundef @.str.3, ptr noundef %channels, ptr noundef %19)
  br i1 %call18, label %if.end20, label %if.then19

if.then19:                                        ; preds = %if.then17
  store i1 false, ptr %retval, align 1
  br label %return

if.end20:                                         ; preds = %if.then17
  br label %if.end21

if.end21:                                         ; preds = %if.end20, %if.end15
  %20 = load ptr, ptr %v.addr, align 8
  %21 = load ptr, ptr %obj.addr, align 8
  %has_voices = getelementptr inbounds %struct.AudiodevPerDirectionOptions, ptr %21, i32 0, i32 8
  %call22 = call zeroext i1 @visit_optional(ptr noundef %20, ptr noundef @.str.4, ptr noundef %has_voices)
  br i1 %call22, label %if.then23, label %if.end27

if.then23:                                        ; preds = %if.end21
  %22 = load ptr, ptr %v.addr, align 8
  %23 = load ptr, ptr %obj.addr, align 8
  %voices = getelementptr inbounds %struct.AudiodevPerDirectionOptions, ptr %23, i32 0, i32 9
  %24 = load ptr, ptr %errp.addr, align 8
  %call24 = call zeroext i1 @visit_type_uint32(ptr noundef %22, ptr noundef @.str.4, ptr noundef %voices, ptr noundef %24)
  br i1 %call24, label %if.end26, label %if.then25

if.then25:                                        ; preds = %if.then23
  store i1 false, ptr %retval, align 1
  br label %return

if.end26:                                         ; preds = %if.then23
  br label %if.end27

if.end27:                                         ; preds = %if.end26, %if.end21
  %25 = load ptr, ptr %v.addr, align 8
  %26 = load ptr, ptr %obj.addr, align 8
  %has_format = getelementptr inbounds %struct.AudiodevPerDirectionOptions, ptr %26, i32 0, i32 10
  %call28 = call zeroext i1 @visit_optional(ptr noundef %25, ptr noundef @.str.5, ptr noundef %has_format)
  br i1 %call28, label %if.then29, label %if.end33

if.then29:                                        ; preds = %if.end27
  %27 = load ptr, ptr %v.addr, align 8
  %28 = load ptr, ptr %obj.addr, align 8
  %format = getelementptr inbounds %struct.AudiodevPerDirectionOptions, ptr %28, i32 0, i32 11
  %29 = load ptr, ptr %errp.addr, align 8
  %call30 = call zeroext i1 @visit_type_AudioFormat(ptr noundef %27, ptr noundef @.str.5, ptr noundef %format, ptr noundef %29)
  br i1 %call30, label %if.end32, label %if.then31

if.then31:                                        ; preds = %if.then29
  store i1 false, ptr %retval, align 1
  br label %return

if.end32:                                         ; preds = %if.then29
  br label %if.end33

if.end33:                                         ; preds = %if.end32, %if.end27
  %30 = load ptr, ptr %v.addr, align 8
  %31 = load ptr, ptr %obj.addr, align 8
  %has_buffer_length = getelementptr inbounds %struct.AudiodevPerDirectionOptions, ptr %31, i32 0, i32 12
  %call34 = call zeroext i1 @visit_optional(ptr noundef %30, ptr noundef @.str.6, ptr noundef %has_buffer_length)
  br i1 %call34, label %if.then35, label %if.end39

if.then35:                                        ; preds = %if.end33
  %32 = load ptr, ptr %v.addr, align 8
  %33 = load ptr, ptr %obj.addr, align 8
  %buffer_length = getelementptr inbounds %struct.AudiodevPerDirectionOptions, ptr %33, i32 0, i32 13
  %34 = load ptr, ptr %errp.addr, align 8
  %call36 = call zeroext i1 @visit_type_uint32(ptr noundef %32, ptr noundef @.str.6, ptr noundef %buffer_length, ptr noundef %34)
  br i1 %call36, label %if.end38, label %if.then37

if.then37:                                        ; preds = %if.then35
  store i1 false, ptr %retval, align 1
  br label %return

if.end38:                                         ; preds = %if.then35
  br label %if.end39

if.end39:                                         ; preds = %if.end38, %if.end33
  store i1 true, ptr %retval, align 1
  br label %return

return:                                           ; preds = %if.end39, %if.then37, %if.then31, %if.then25, %if.then19, %if.then13, %if.then7, %if.then2
  %35 = load i1, ptr %retval, align 1
  ret i1 %35
}