; Function Attrs: nounwind sspstrong uwtable
define dso_local noundef zeroext i1 @visit_type_AudiodevPerDirectionOptions_members(ptr noundef %v, ptr noundef %obj, ptr noundef %errp) local_unnamed_addr #0 {
entry:
  %value.i = alloca i32, align 4
  %call = tail call zeroext i1 @visit_optional(ptr noundef %v, ptr noundef nonnull @.str, ptr noundef %obj) #5
  br i1 %call, label %if.then, label %if.end3

if.then:                                          ; preds = %entry
  %mixing_engine = getelementptr inbounds nuw i8, ptr %obj, i64 1
  %call1 = tail call zeroext i1 @visit_type_bool(ptr noundef %v, ptr noundef nonnull @.str, ptr noundef nonnull %mixing_engine, ptr noundef %errp) #5
  br i1 %call1, label %if.end3, label %return

if.end3:                                          ; preds = %if.then, %entry
  %has_fixed_settings = getelementptr inbounds nuw i8, ptr %obj, i64 2
  %call4 = tail call zeroext i1 @visit_optional(ptr noundef %v, ptr noundef nonnull @.str.1, ptr noundef nonnull %has_fixed_settings) #5
  br i1 %call4, label %if.then5, label %if.end9

if.then5:                                         ; preds = %if.end3
  %fixed_settings = getelementptr inbounds nuw i8, ptr %obj, i64 3
  %call6 = tail call zeroext i1 @visit_type_bool(ptr noundef %v, ptr noundef nonnull @.str.1, ptr noundef nonnull %fixed_settings, ptr noundef %errp) #5
  br i1 %call6, label %if.end9, label %return

if.end9:                                          ; preds = %if.then5, %if.end3
  %has_frequency = getelementptr inbounds nuw i8, ptr %obj, i64 4
  %call10 = tail call zeroext i1 @visit_optional(ptr noundef %v, ptr noundef nonnull @.str.2, ptr noundef nonnull %has_frequency) #5
  br i1 %call10, label %if.then11, label %if.end15

if.then11:                                        ; preds = %if.end9
  %frequency = getelementptr inbounds nuw i8, ptr %obj, i64 8
  %call12 = tail call zeroext i1 @visit_type_uint32(ptr noundef %v, ptr noundef nonnull @.str.2, ptr noundef nonnull %frequency, ptr noundef %errp) #5
  br i1 %call12, label %if.end15, label %return

if.end15:                                         ; preds = %if.then11, %if.end9
  %has_channels = getelementptr inbounds nuw i8, ptr %obj, i64 12
  %call16 = tail call zeroext i1 @visit_optional(ptr noundef %v, ptr noundef nonnull @.str.3, ptr noundef nonnull %has_channels) #5
  br i1 %call16, label %if.then17, label %if.end21

if.then17:                                        ; preds = %if.end15
  %channels = getelementptr inbounds nuw i8, ptr %obj, i64 16
  %call18 = tail call zeroext i1 @visit_type_uint32(ptr noundef %v, ptr noundef nonnull @.str.3, ptr noundef nonnull %channels, ptr noundef %errp) #5
  br i1 %call18, label %if.end21, label %return

if.end21:                                         ; preds = %if.then17, %if.end15
  %has_voices = getelementptr inbounds nuw i8, ptr %obj, i64 20
  %call22 = tail call zeroext i1 @visit_optional(ptr noundef %v, ptr noundef nonnull @.str.4, ptr noundef nonnull %has_voices) #5
  br i1 %call22, label %if.then23, label %if.end27

if.then23:                                        ; preds = %if.end21
  %voices = getelementptr inbounds nuw i8, ptr %obj, i64 24
  %call24 = tail call zeroext i1 @visit_type_uint32(ptr noundef %v, ptr noundef nonnull @.str.4, ptr noundef nonnull %voices, ptr noundef %errp) #5
  br i1 %call24, label %if.end27, label %return

if.end27:                                         ; preds = %if.then23, %if.end21
  %has_format = getelementptr inbounds nuw i8, ptr %obj, i64 28
  %call28 = tail call zeroext i1 @visit_optional(ptr noundef %v, ptr noundef nonnull @.str.5, ptr noundef nonnull %has_format) #5
  br i1 %call28, label %if.then29, label %if.end33

if.then29:                                        ; preds = %if.end27
  %format = getelementptr inbounds nuw i8, ptr %obj, i64 32
  call void @llvm.lifetime.start.p0(i64 4, ptr nonnull %value.i)
  %0 = load i32, ptr %format, align 4
  store i32 %0, ptr %value.i, align 4
  %call.i = call zeroext i1 @visit_type_enum(ptr noundef %v, ptr noundef nonnull @.str.5, ptr noundef nonnull %value.i, ptr noundef nonnull @AudioFormat_lookup, ptr noundef %errp) #5
  %1 = load i32, ptr %value.i, align 4
  store i32 %1, ptr %format, align 4
  call void @llvm.lifetime.end.p0(i64 4, ptr nonnull %value.i)
  br i1 %call.i, label %if.end33, label %return

if.end33:                                         ; preds = %if.then29, %if.end27
  %has_buffer_length = getelementptr inbounds nuw i8, ptr %obj, i64 36
  %call34 = call zeroext i1 @visit_optional(ptr noundef %v, ptr noundef nonnull @.str.6, ptr noundef nonnull %has_buffer_length) #5
  br i1 %call34, label %if.then35, label %if.end39

if.then35:                                        ; preds = %if.end33
  %buffer_length = getelementptr inbounds nuw i8, ptr %obj, i64 40
  %call36 = call zeroext i1 @visit_type_uint32(ptr noundef %v, ptr noundef nonnull @.str.6, ptr noundef nonnull %buffer_length, ptr noundef %errp) #5
  br i1 %call36, label %if.end39, label %return

if.end39:                                         ; preds = %if.then35, %if.end33
  br label %return

return:                                           ; preds = %if.then35, %if.then29, %if.then23, %if.then17, %if.then11, %if.then5, %if.then, %if.end39
  %retval.0 = phi i1 [ true, %if.end39 ], [ false, %if.then ], [ false, %if.then5 ], [ false, %if.then11 ], [ false, %if.then17 ], [ false, %if.then23 ], [ false, %if.then29 ], [ false, %if.then35 ]
  ret i1 %retval.0
}